; Function Attrs: mustprogress nofree norecurse nosync nounwind willreturn memory(none) uwtable
define noundef i32 @_ZN2cv17getOptimalDFTSizeEi(i32 noundef %0) local_unnamed_addr #10 {
  %2 = icmp ugt i32 %0, 2125763999
  br i1 %2, label %14, label %.preheader

.preheader:                                       ; preds = %1, %.preheader
  %.01216 = phi i32 [ %.1, %.preheader ], [ 1650, %1 ]
  %.01315 = phi i32 [ %.114, %.preheader ], [ 0, %1 ]
  %3 = add nsw i32 %.01216, %.01315
  %4 = ashr i32 %3, 1
  %5 = sext i32 %4 to i64
  %6 = getelementptr inbounds [1651 x i32], ptr @_ZN2cvL17optimalDFTSizeTabE, i64 0, i64 %5
  %7 = load i32, ptr %6, align 4, !tbaa !46
  %.not = icmp sgt i32 %0, %7
  %8 = add nsw i32 %4, 1
  %.114 = select i1 %.not, i32 %8, i32 %.01315
  %.1 = select i1 %.not, i32 %.01216, i32 %4
  %9 = icmp slt i32 %.114, %.1
  br i1 %9, label %.preheader, label %10, !llvm.loop !189

10:                                               ; preds = %.preheader
  %11 = sext i32 %.1 to i64
  %12 = getelementptr inbounds [1651 x i32], ptr @_ZN2cvL17optimalDFTSizeTabE, i64 0, i64 %11
  %13 = load i32, ptr %12, align 4, !tbaa !46
  br label %14

14:                                               ; preds = %1, %10
  %.0 = phi i32 [ %13, %10 ], [ -1, %1 ]
  ret i32 %.0
}